; ModuleID = '19/2170.c'
source_filename = "19/2170.c"
target datalayout = "e-m:e-p270:32:32-p271:32:32-p272:64:64-i64:64-f80:128-n8:16:32:64-S128"
target triple = "x86_64-pc-linux-gnu"

@.str = private unnamed_addr constant [5 x i8] c"%s%s\00", align 1
@.str.1 = private unnamed_addr constant [3 x i8] c"%s\00", align 1
@.str.2 = private unnamed_addr constant [3 x i8] c"%c\00", align 1
@.str.3 = private unnamed_addr constant [2 x i8] c"\0A\00", align 1

; Function Attrs: noinline nounwind uwtable
define dso_local i32 @main() #0 {
  %1 = alloca i32, align 4
  %2 = alloca [101 x i8], align 16
  %3 = alloca [101 x i8], align 16
  %4 = alloca [101 x i8], align 16
  %5 = alloca i32, align 4
  %6 = alloca i32, align 4
  %7 = alloca i32, align 4
  %8 = alloca i32, align 4
  %9 = alloca i32, align 4
  store i32 0, i32* %1, align 4
  store i32 0, i32* %9, align 4
  %10 = getelementptr inbounds [101 x i8], [101 x i8]* %2, i64 0, i64 0
  %11 = call i32 (i8*, ...) bitcast (i32 (...)* @gets to i32 (i8*, ...)*)(i8* %10)
  %12 = getelementptr inbounds [101 x i8], [101 x i8]* %3, i64 0, i64 0
  %13 = getelementptr inbounds [101 x i8], [101 x i8]* %4, i64 0, i64 0
  %14 = call i32 (i8*, ...) @__isoc99_scanf(i8* getelementptr inbounds ([5 x i8], [5 x i8]* @.str, i64 0, i64 0), i8* %12, i8* %13)
  %15 = getelementptr inbounds [101 x i8], [101 x i8]* %2, i64 0, i64 0
  %16 = call i64 @strlen(i8* %15) #3
  %17 = trunc i64 %16 to i32
  store i32 %17, i32* %5, align 4
  %18 = getelementptr inbounds [101 x i8], [101 x i8]* %3, i64 0, i64 0
  %19 = call i64 @strlen(i8* %18) #3
  %20 = trunc i64 %19 to i32
  store i32 %20, i32* %6, align 4
  store i32 0, i32* %7, align 4
  br label %21

21:                                               ; preds = %205, %0
  %22 = load i32, i32* %7, align 4
  %23 = load i32, i32* %5, align 4
  %24 = icmp slt i32 %22, %23
  br i1 %24, label %25, label %208

25:                                               ; preds = %21
  %26 = load i32, i32* %7, align 4
  %27 = icmp eq i32 %26, 0
  br i1 %27, label %28, label %63

28:                                               ; preds = %25
  %29 = load i32, i32* %7, align 4
  %30 = sext i32 %29 to i64
  %31 = getelementptr inbounds [101 x i8], [101 x i8]* %2, i64 0, i64 %30
  %32 = load i8, i8* %31, align 1
  %33 = sext i8 %32 to i32
  %34 = getelementptr inbounds [101 x i8], [101 x i8]* %3, i64 0, i64 0
  %35 = load i8, i8* %34, align 16
  %36 = sext i8 %35 to i32
  %37 = icmp eq i32 %33, %36
  br i1 %37, label %38, label %63

38:                                               ; preds = %28
  %39 = load i32, i32* %7, align 4
  %40 = load i32, i32* %6, align 4
  %41 = add nsw i32 %39, %40
  %42 = sub nsw i32 %41, 1
  %43 = sext i32 %42 to i64
  %44 = getelementptr inbounds [101 x i8], [101 x i8]* %2, i64 0, i64 %43
  %45 = load i8, i8* %44, align 1
  %46 = sext i8 %45 to i32
  %47 = load i32, i32* %6, align 4
  %48 = sub nsw i32 %47, 1
  %49 = sext i32 %48 to i64
  %50 = getelementptr inbounds [101 x i8], [101 x i8]* %3, i64 0, i64 %49
  %51 = load i8, i8* %50, align 1
  %52 = sext i8 %51 to i32
  %53 = icmp eq i32 %46, %52
  br i1 %53, label %54, label %63

54:                                               ; preds = %38
  %55 = load i32, i32* %7, align 4
  %56 = load i32, i32* %6, align 4
  %57 = add nsw i32 %55, %56
  %58 = sext i32 %57 to i64
  %59 = getelementptr inbounds [101 x i8], [101 x i8]* %2, i64 0, i64 %58
  %60 = load i8, i8* %59, align 1
  %61 = sext i8 %60 to i32
  %62 = icmp eq i32 %61, 32
  br i1 %62, label %149, label %63

63:                                               ; preds = %54, %38, %28, %25
  %64 = load i32, i32* %7, align 4
  %65 = icmp ne i32 %64, 0
  br i1 %65, label %66, label %109

66:                                               ; preds = %63
  %67 = load i32, i32* %7, align 4
  %68 = sub nsw i32 %67, 1
  %69 = sext i32 %68 to i64
  %70 = getelementptr inbounds [101 x i8], [101 x i8]* %2, i64 0, i64 %69
  %71 = load i8, i8* %70, align 1
  %72 = sext i8 %71 to i32
  %73 = icmp eq i32 %72, 32
  br i1 %73, label %74, label %109

74:                                               ; preds = %66
  %75 = load i32, i32* %7, align 4
  %76 = sext i32 %75 to i64
  %77 = getelementptr inbounds [101 x i8], [101 x i8]* %2, i64 0, i64 %76
  %78 = load i8, i8* %77, align 1
  %79 = sext i8 %78 to i32
  %80 = getelementptr inbounds [101 x i8], [101 x i8]* %3, i64 0, i64 0
  %81 = load i8, i8* %80, align 16
  %82 = sext i8 %81 to i32
  %83 = icmp eq i32 %79, %82
  br i1 %83, label %84, label %109

84:                                               ; preds = %74
  %85 = load i32, i32* %7, align 4
  %86 = load i32, i32* %6, align 4
  %87 = add nsw i32 %85, %86
  %88 = sub nsw i32 %87, 1
  %89 = sext i32 %88 to i64
  %90 = getelementptr inbounds [101 x i8], [101 x i8]* %2, i64 0, i64 %89
  %91 = load i8, i8* %90, align 1
  %92 = sext i8 %91 to i32
  %93 = load i32, i32* %6, align 4
  %94 = sub nsw i32 %93, 1
  %95 = sext i32 %94 to i64
  %96 = getelementptr inbounds [101 x i8], [101 x i8]* %3, i64 0, i64 %95
  %97 = load i8, i8* %96, align 1
  %98 = sext i8 %97 to i32
  %99 = icmp eq i32 %92, %98
  br i1 %99, label %100, label %109

100:                                              ; preds = %84
  %101 = load i32, i32* %7, align 4
  %102 = load i32, i32* %6, align 4
  %103 = add nsw i32 %101, %102
  %104 = sext i32 %103 to i64
  %105 = getelementptr inbounds [101 x i8], [101 x i8]* %2, i64 0, i64 %104
  %106 = load i8, i8* %105, align 1
  %107 = sext i8 %106 to i32
  %108 = icmp eq i32 %107, 32
  br i1 %108, label %149, label %109

109:                                              ; preds = %100, %84, %74, %66, %63
  %110 = load i32, i32* %7, align 4
  %111 = load i32, i32* %6, align 4
  %112 = add nsw i32 %110, %111
  %113 = load i32, i32* %5, align 4
  %114 = icmp eq i32 %112, %113
  br i1 %114, label %115, label %197

115:                                              ; preds = %109
  %116 = load i32, i32* %7, align 4
  %117 = sub nsw i32 %116, 1
  %118 = sext i32 %117 to i64
  %119 = getelementptr inbounds [101 x i8], [101 x i8]* %2, i64 0, i64 %118
  %120 = load i8, i8* %119, align 1
  %121 = sext i8 %120 to i32
  %122 = icmp eq i32 %121, 32
  br i1 %122, label %123, label %197

123:                                              ; preds = %115
  %124 = load i32, i32* %7, align 4
  %125 = sext i32 %124 to i64
  %126 = getelementptr inbounds [101 x i8], [101 x i8]* %2, i64 0, i64 %125
  %127 = load i8, i8* %126, align 1
  %128 = sext i8 %127 to i32
  %129 = getelementptr inbounds [101 x i8], [101 x i8]* %3, i64 0, i64 0
  %130 = load i8, i8* %129, align 16
  %131 = sext i8 %130 to i32
  %132 = icmp eq i32 %128, %131
  br i1 %132, label %133, label %197

133:                                              ; preds = %123
  %134 = load i32, i32* %7, align 4
  %135 = load i32, i32* %6, align 4
  %136 = add nsw i32 %134, %135
  %137 = sub nsw i32 %136, 1
  %138 = sext i32 %137 to i64
  %139 = getelementptr inbounds [101 x i8], [101 x i8]* %2, i64 0, i64 %138
  %140 = load i8, i8* %139, align 1
  %141 = sext i8 %140 to i32
  %142 = load i32, i32* %6, align 4
  %143 = sub nsw i32 %142, 1
  %144 = sext i32 %143 to i64
  %145 = getelementptr inbounds [101 x i8], [101 x i8]* %3, i64 0, i64 %144
  %146 = load i8, i8* %145, align 1
  %147 = sext i8 %146 to i32
  %148 = icmp eq i32 %141, %147
  br i1 %148, label %149, label %197

149:                                              ; preds = %133, %100, %54
  %150 = load i32, i32* %7, align 4
  store i32 %150, i32* %8, align 4
  br label %151

151:                                              ; preds = %175, %149
  %152 = load i32, i32* %8, align 4
  %153 = load i32, i32* %7, align 4
  %154 = load i32, i32* %6, align 4
  %155 = add nsw i32 %153, %154
  %156 = icmp slt i32 %152, %155
  br i1 %156, label %157, label %178

157:                                              ; preds = %151
  %158 = load i32, i32* %8, align 4
  %159 = sext i32 %158 to i64
  %160 = getelementptr inbounds [101 x i8], [101 x i8]* %2, i64 0, i64 %159
  %161 = load i8, i8* %160, align 1
  %162 = sext i8 %161 to i32
  %163 = load i32, i32* %8, align 4
  %164 = load i32, i32* %7, align 4
  %165 = sub nsw i32 %163, %164
  %166 = sext i32 %165 to i64
  %167 = getelementptr inbounds [101 x i8], [101 x i8]* %3, i64 0, i64 %166
  %168 = load i8, i8* %167, align 1
  %169 = sext i8 %168 to i32
  %170 = icmp eq i32 %162, %169
  br i1 %170, label %171, label %174

171:                                              ; preds = %157
  %172 = load i32, i32* %9, align 4
  %173 = add nsw i32 %172, 1
  store i32 %173, i32* %9, align 4
  br label %174

174:                                              ; preds = %171, %157
  br label %175

175:                                              ; preds = %174
  %176 = load i32, i32* %8, align 4
  %177 = add nsw i32 %176, 1
  store i32 %177, i32* %8, align 4
  br label %151

178:                                              ; preds = %151
  %179 = load i32, i32* %9, align 4
  %180 = load i32, i32* %6, align 4
  %181 = icmp eq i32 %179, %180
  br i1 %181, label %182, label %189

182:                                              ; preds = %178
  %183 = getelementptr inbounds [101 x i8], [101 x i8]* %4, i64 0, i64 0
  %184 = call i32 (i8*, ...) @printf(i8* getelementptr inbounds ([3 x i8], [3 x i8]* @.str.1, i64 0, i64 0), i8* %183)
  %185 = load i32, i32* %6, align 4
  %186 = sub nsw i32 %185, 1
  %187 = load i32, i32* %7, align 4
  %188 = add nsw i32 %187, %186
  store i32 %188, i32* %7, align 4
  br label %196

189:                                              ; preds = %178
  %190 = load i32, i32* %7, align 4
  %191 = sext i32 %190 to i64
  %192 = getelementptr inbounds [101 x i8], [101 x i8]* %2, i64 0, i64 %191
  %193 = load i8, i8* %192, align 1
  %194 = sext i8 %193 to i32
  %195 = call i32 (i8*, ...) @printf(i8* getelementptr inbounds ([3 x i8], [3 x i8]* @.str.2, i64 0, i64 0), i32 %194)
  br label %196

196:                                              ; preds = %189, %182
  store i32 0, i32* %9, align 4
  br label %204

197:                                              ; preds = %133, %123, %115, %109
  %198 = load i32, i32* %7, align 4
  %199 = sext i32 %198 to i64
  %200 = getelementptr inbounds [101 x i8], [101 x i8]* %2, i64 0, i64 %199
  %201 = load i8, i8* %200, align 1
  %202 = sext i8 %201 to i32
  %203 = call i32 (i8*, ...) @printf(i8* getelementptr inbounds ([3 x i8], [3 x i8]* @.str.2, i64 0, i64 0), i32 %202)
  br label %204

204:                                              ; preds = %197, %196
  br label %205

205:                                              ; preds = %204
  %206 = load i32, i32* %7, align 4
  %207 = add nsw i32 %206, 1
  store i32 %207, i32* %7, align 4
  br label %21

208:                                              ; preds = %21
  %209 = call i32 (i8*, ...) @printf(i8* getelementptr inbounds ([2 x i8], [2 x i8]* @.str.3, i64 0, i64 0))
  ret i32 0
}

declare dso_local i32 @gets(...) #1

declare dso_local i32 @__isoc99_scanf(i8*, ...) #1

; Function Attrs: nounwind readonly
declare dso_local i64 @strlen(i8*) #2

declare dso_local i32 @printf(i8*, ...) #1


!llvm.module.flags = !{!0}
!llvm.ident = !{!1}

!0 = !{i32 1, !"wchar_size", i32 4}
!1 = !{!"clang version 10.0.0-4ubuntu1 "}
